; ModuleID = 'source-C-CXX/56/295.c'
source_filename = "source-C-CXX/56/295.c"
target datalayout = "e-m:e-p270:32:32-p271:32:32-p272:64:64-i64:64-f80:128-n8:16:32:64-S128"
target triple = "x86_64-pc-linux-gnu"

@.str = private unnamed_addr constant [3 x i8] c"%d\00", align 1
@.str.1 = private unnamed_addr constant [3 x i8] c"%s\00", align 1

; Function Attrs: nofree nounwind sspstrong uwtable
define dso_local i32 @main() local_unnamed_addr #0 {
  %1 = alloca i32, align 4
  %2 = alloca [100 x [20 x i8]], align 16
  %3 = bitcast i32* %1 to i8*
  call void @llvm.lifetime.start.p0i8(i64 4, i8* nonnull %3) #6
  %4 = getelementptr inbounds [100 x [20 x i8]], [100 x [20 x i8]]* %2, i64 0, i64 0, i64 0
  call void @llvm.lifetime.start.p0i8(i64 2000, i8* nonnull %4) #6
  %5 = call i32 (i8*, ...) @__isoc99_scanf(i8* getelementptr inbounds ([3 x i8], [3 x i8]* @.str, i64 0, i64 0), i32* nonnull %1)
  %6 = load i32, i32* %1, align 4, !tbaa !5
  %7 = icmp sgt i32 %6, 0
  br i1 %7, label %10, label %50

8:                                                ; preds = %10
  %9 = icmp sgt i32 %15, 0
  br i1 %9, label %18, label %50

10:                                               ; preds = %0, %10
  %11 = phi i64 [ %14, %10 ], [ 0, %0 ]
  %12 = getelementptr inbounds [100 x [20 x i8]], [100 x [20 x i8]]* %2, i64 0, i64 %11, i64 0
  %13 = call i32 (i8*, ...) @__isoc99_scanf(i8* getelementptr inbounds ([3 x i8], [3 x i8]* @.str.1, i64 0, i64 0), i8* nonnull %12)
  %14 = add nuw nsw i64 %11, 1
  %15 = load i32, i32* %1, align 4, !tbaa !5
  %16 = sext i32 %15 to i64
  %17 = icmp slt i64 %14, %16
  br i1 %17, label %10, label %8, !llvm.loop !9

18:                                               ; preds = %8, %44
  %19 = phi i64 [ %46, %44 ], [ 0, %8 ]
  %20 = getelementptr inbounds [100 x [20 x i8]], [100 x [20 x i8]]* %2, i64 0, i64 %19, i64 0
  %21 = call i64 @strlen(i8* noundef nonnull dereferenceable(1) %20) #7
  %22 = shl i64 %21, 32
  %23 = add i64 %22, -4294967296
  %24 = ashr exact i64 %23, 32
  %25 = getelementptr inbounds [100 x [20 x i8]], [100 x [20 x i8]]* %2, i64 0, i64 %19, i64 %24
  %26 = load i8, i8* %25, align 1, !tbaa !11
  %27 = icmp eq i8 %26, 121
  %28 = zext i1 %27 to i32
  %29 = icmp eq i8 %26, 103
  %30 = select i1 %29, i32 2, i32 %28
  switch i32 %30, label %44 [
    i32 0, label %37
    i32 1, label %37
    i32 2, label %31
  ]

31:                                               ; preds = %18
  store i8 0, i8* %25, align 1, !tbaa !11
  %32 = call i64 @strlen(i8* noundef nonnull dereferenceable(1) %20) #7
  %33 = shl i64 %32, 32
  %34 = add i64 %33, -4294967296
  %35 = ashr exact i64 %34, 32
  %36 = getelementptr inbounds [100 x [20 x i8]], [100 x [20 x i8]]* %2, i64 0, i64 %19, i64 %35
  br label %37

37:                                               ; preds = %31, %18, %18
  %38 = phi i8* [ %36, %31 ], [ %25, %18 ], [ %25, %18 ]
  store i8 0, i8* %38, align 1, !tbaa !11
  %39 = call i64 @strlen(i8* noundef nonnull dereferenceable(1) %20) #7
  %40 = shl i64 %39, 32
  %41 = add i64 %40, -4294967296
  %42 = ashr exact i64 %41, 32
  %43 = getelementptr inbounds [100 x [20 x i8]], [100 x [20 x i8]]* %2, i64 0, i64 %19, i64 %42
  store i8 0, i8* %43, align 1, !tbaa !11
  br label %44

44:                                               ; preds = %18, %37
  %45 = call i32 @puts(i8* nonnull %20)
  %46 = add nuw nsw i64 %19, 1
  %47 = load i32, i32* %1, align 4, !tbaa !5
  %48 = sext i32 %47 to i64
  %49 = icmp slt i64 %46, %48
  br i1 %49, label %18, label %50, !llvm.loop !12

50:                                               ; preds = %44, %0, %8
  call void @llvm.lifetime.end.p0i8(i64 2000, i8* nonnull %4) #6
  call void @llvm.lifetime.end.p0i8(i64 4, i8* nonnull %3) #6
  ret i32 0
}

; Function Attrs: argmemonly mustprogress nofree nosync nounwind willreturn
declare void @llvm.lifetime.start.p0i8(i64 immarg, i8* nocapture) #1

; Function Attrs: nofree nounwind
declare noundef i32 @__isoc99_scanf(i8* nocapture noundef readonly, ...) local_unnamed_addr #2

; Function Attrs: mustprogress nofree nounwind sspstrong uwtable willreturn
define dso_local void @crea(i8* nocapture %0) local_unnamed_addr #3 {
  %2 = tail call i64 @strlen(i8* noundef nonnull dereferenceable(1) %0) #7
  %3 = shl i64 %2, 32
  %4 = add i64 %3, -4294967296
  %5 = ashr exact i64 %4, 32
  %6 = getelementptr inbounds i8, i8* %0, i64 %5
  %7 = load i8, i8* %6, align 1, !tbaa !11
  %8 = icmp eq i8 %7, 121
  %9 = zext i1 %8 to i32
  %10 = icmp eq i8 %7, 103
  %11 = select i1 %10, i32 2, i32 %9
  switch i32 %11, label %25 [
    i32 0, label %18
    i32 1, label %18
    i32 2, label %12
  ]

12:                                               ; preds = %1
  store i8 0, i8* %6, align 1, !tbaa !11
  %13 = tail call i64 @strlen(i8* noundef nonnull dereferenceable(1) %0) #7
  %14 = shl i64 %13, 32
  %15 = add i64 %14, -4294967296
  %16 = ashr exact i64 %15, 32
  %17 = getelementptr inbounds i8, i8* %0, i64 %16
  br label %18

18:                                               ; preds = %1, %1, %12
  %19 = phi i8* [ %17, %12 ], [ %6, %1 ], [ %6, %1 ]
  store i8 0, i8* %19, align 1, !tbaa !11
  %20 = tail call i64 @strlen(i8* noundef nonnull dereferenceable(1) %0) #7
  %21 = shl i64 %20, 32
  %22 = add i64 %21, -4294967296
  %23 = ashr exact i64 %22, 32
  %24 = getelementptr inbounds i8, i8* %0, i64 %23
  store i8 0, i8* %24, align 1, !tbaa !11
  br label %25

25:                                               ; preds = %18, %1
  ret void
}

; Function Attrs: argmemonly mustprogress nofree nosync nounwind willreturn
declare void @llvm.lifetime.end.p0i8(i64 immarg, i8* nocapture) #1

; Function Attrs: argmemonly mustprogress nofree nounwind readonly willreturn
declare i64 @strlen(i8* nocapture) local_unnamed_addr #4

; Function Attrs: nofree nounwind
declare noundef i32 @puts(i8* nocapture noundef readonly) local_unnamed_addr #5


!llvm.module.flags = !{!0, !1, !2, !3}
!llvm.ident = !{!4}

!0 = !{i32 1, !"wchar_size", i32 4}
!1 = !{i32 7, !"PIC Level", i32 2}
!2 = !{i32 7, !"PIE Level", i32 2}
!3 = !{i32 7, !"uwtable", i32 1}
!4 = !{!"clang version 13.0.0"}
!5 = !{!6, !6, i64 0}
!6 = !{!"int", !7, i64 0}
!7 = !{!"omnipotent char", !8, i64 0}
!8 = !{!"Simple C/C++ TBAA"}
!9 = distinct !{!9, !10}
!10 = !{!"llvm.loop.mustprogress"}
!11 = !{!7, !7, i64 0}
!12 = distinct !{!12, !10}
